target datalayout = "e-m:e-p270:32:32-p271:32:32-p272:64:64-i64:64-i128:128-f80:128-n8:16:32:64-S128"
target triple = "x86_64-pc-linux-gnu"

%struct.ggml_opt_result = type <{ i64, %"class.std::vector.0", %"class.std::vector.5", i64, i64, i8, [7 x i8] }>
%"class.std::vector.0" = type { %"struct.std::_Vector_base.1" }
%"struct.std::_Vector_base.1" = type { %"struct.std::_Vector_base<float, std::allocator<float>>::_Vector_impl" }
%"struct.std::_Vector_base<float, std::allocator<float>>::_Vector_impl" = type { %"struct.std::_Vector_base<float, std::allocator<float>>::_Vector_impl_data" }
%"struct.std::_Vector_base<float, std::allocator<float>>::_Vector_impl_data" = type { ptr, ptr, ptr }
%"class.std::vector.5" = type { %"struct.std::_Vector_base.6" }
%"struct.std::_Vector_base.6" = type { %"struct.std::_Vector_base<int, std::allocator<int>>::_Vector_impl" }
%"struct.std::_Vector_base<int, std::allocator<int>>::_Vector_impl" = type { %"struct.std::_Vector_base<int, std::allocator<int>>::_Vector_impl_data" }
%"struct.std::_Vector_base<int, std::allocator<int>>::_Vector_impl_data" = type { ptr, ptr, ptr }

; Function Attrs: mustprogress nounwind uwtable
define void @ggml_opt_result_accuracy(ptr noundef %0, ptr noundef %1, ptr noundef %2) #7 {
  %4 = alloca ptr, align 8
  %5 = alloca ptr, align 8
  %6 = alloca ptr, align 8
  store ptr %0, ptr %4, align 8, !tbaa !132
  store ptr %1, ptr %5, align 8, !tbaa !154
  store ptr %2, ptr %6, align 8, !tbaa !154
  %7 = load ptr, ptr %4, align 8, !tbaa !132
  %8 = getelementptr inbounds nuw %struct.ggml_opt_result, ptr %7, i32 0, i32 3
  %9 = load i64, ptr %8, align 8, !tbaa !145
  %10 = icmp sge i64 %9, 0
  br i1 %10, label %11, label %21

11:                                               ; preds = %3
  %12 = load ptr, ptr %4, align 8, !tbaa !132
  %13 = getelementptr inbounds nuw %struct.ggml_opt_result, ptr %12, i32 0, i32 3
  %14 = load i64, ptr %13, align 8, !tbaa !145
  %15 = sitofp i64 %14 to double
  %16 = load ptr, ptr %4, align 8, !tbaa !132
  %17 = getelementptr inbounds nuw %struct.ggml_opt_result, ptr %16, i32 0, i32 0
  %18 = load i64, ptr %17, align 8, !tbaa !134
  %19 = sitofp i64 %18 to double
  %20 = fdiv double %15, %19
  br label %22

21:                                               ; preds = %3
  br label %22

22:                                               ; preds = %21, %11
  %23 = phi double [ %20, %11 ], [ 0x7FF8000000000000, %21 ]
  %24 = load ptr, ptr %5, align 8, !tbaa !154
  store double %23, ptr %24, align 8, !tbaa !156
  %25 = load ptr, ptr %6, align 8, !tbaa !154
  %26 = icmp ne ptr %25, null
  br i1 %26, label %28, label %27

27:                                               ; preds = %22
  br label %56

28:                                               ; preds = %22
  %29 = load ptr, ptr %4, align 8, !tbaa !132
  %30 = getelementptr inbounds nuw %struct.ggml_opt_result, ptr %29, i32 0, i32 3
  %31 = load i64, ptr %30, align 8, !tbaa !145
  %32 = icmp sge i64 %31, 0
  br i1 %32, label %33, label %52

33:                                               ; preds = %28
  %34 = load ptr, ptr %4, align 8, !tbaa !132
  %35 = getelementptr inbounds nuw %struct.ggml_opt_result, ptr %34, i32 0, i32 0
  %36 = load i64, ptr %35, align 8, !tbaa !134
  %37 = icmp sge i64 %36, 2
  br i1 %37, label %38, label %52

38:                                               ; preds = %33
  %39 = load ptr, ptr %5, align 8, !tbaa !154
  %40 = load double, ptr %39, align 8, !tbaa !156
  %41 = load ptr, ptr %5, align 8, !tbaa !154
  %42 = load double, ptr %41, align 8, !tbaa !156
  %43 = fsub double 1.000000e+00, %42
  %44 = fmul double %40, %43
  %45 = load ptr, ptr %4, align 8, !tbaa !132
  %46 = getelementptr inbounds nuw %struct.ggml_opt_result, ptr %45, i32 0, i32 0
  %47 = load i64, ptr %46, align 8, !tbaa !134
  %48 = sub nsw i64 %47, 1
  %49 = sitofp i64 %48 to double
  %50 = fdiv double %44, %49
  %51 = call double @sqrt(double noundef %50) #17, !tbaa !100
  br label %53

52:                                               ; preds = %33, %28
  br label %53

53:                                               ; preds = %52, %38
  %54 = phi double [ %51, %38 ], [ 0x7FF8000000000000, %52 ]
  %55 = load ptr, ptr %6, align 8, !tbaa !154
  store double %54, ptr %55, align 8, !tbaa !156
  br label %56

56:                                               ; preds = %53, %27
  ret void
}