; Function Attrs: mustprogress nofree nounwind willreturn memory(write, argmem: readwrite) uwtable
define void @ggml_opt_result_accuracy(ptr noundef readonly captures(none) %0, ptr noundef writeonly captures(none) initializes((0, 8)) %1, ptr noundef writeonly %2) local_unnamed_addr #15 {
  %4 = getelementptr inbounds nuw i8, ptr %0, i64 56
  %5 = load i64, ptr %4, align 8, !tbaa !124
  %6 = icmp sgt i64 %5, -1
  br i1 %6, label %7, label %.thread

7:                                                ; preds = %3
  %8 = uitofp nneg i64 %5 to double
  %9 = load i64, ptr %0, align 8, !tbaa !121
  %10 = sitofp i64 %9 to double
  %11 = fdiv double %8, %10
  store double %11, ptr %1, align 8, !tbaa !128
  %.not = icmp eq ptr %2, null
  br i1 %.not, label %22, label %12

.thread:                                          ; preds = %3
  store double 0x7FF8000000000000, ptr %1, align 8, !tbaa !128
  %.not13 = icmp eq ptr %2, null
  br i1 %.not13, label %22, label %.thread14

12:                                               ; preds = %7
  %13 = icmp sgt i64 %9, 1
  br i1 %13, label %14, label %.thread14

14:                                               ; preds = %12
  %15 = fsub double 1.000000e+00, %11
  %16 = fmul double %11, %15
  %17 = add nsw i64 %9, -1
  %18 = uitofp nneg i64 %17 to double
  %19 = fdiv double %16, %18
  %20 = tail call double @sqrt(double noundef %19) #30, !tbaa !130
  br label %.thread14

.thread14:                                        ; preds = %.thread, %12, %14
  %21 = phi double [ %20, %14 ], [ 0x7FF8000000000000, %12 ], [ 0x7FF8000000000000, %.thread ]
  store double %21, ptr %2, align 8, !tbaa !128
  br label %22

22:                                               ; preds = %.thread, %7, %.thread14
  ret void
}